; ModuleID = '55/9.c'
source_filename = "55/9.c"
target datalayout = "e-m:e-p270:32:32-p271:32:32-p272:64:64-i64:64-f80:128-n8:16:32:64-S128"
target triple = "x86_64-pc-linux-gnu"

@.str = private unnamed_addr constant [7 x i8] c"%d%s%d\00", align 1
@.str.1 = private unnamed_addr constant [3 x i8] c"%d\00", align 1
@.str.2 = private unnamed_addr constant [3 x i8] c"%c\00", align 1

; Function Attrs: noinline nounwind uwtable
define dso_local i32 @main(i32 %0, i8** %1) #0 {
  %3 = alloca i32, align 4
  %4 = alloca i32, align 4
  %5 = alloca i8**, align 8
  %6 = alloca i32, align 4
  %7 = alloca i32, align 4
  %8 = alloca i32, align 4
  %9 = alloca i32, align 4
  %10 = alloca i32, align 4
  %11 = alloca i32, align 4
  %12 = alloca i32, align 4
  %13 = alloca [20 x i8], align 16
  %14 = alloca [20 x i32], align 16
  store i32 0, i32* %3, align 4
  store i32 %0, i32* %4, align 4
  store i8** %1, i8*** %5, align 8
  store i32 0, i32* %8, align 4
  store i32 0, i32* %10, align 4
  store i32 0, i32* %11, align 4
  store i32 0, i32* %12, align 4
  %15 = getelementptr inbounds [20 x i8], [20 x i8]* %13, i64 0, i64 0
  %16 = call i32 (i8*, ...) @__isoc99_scanf(i8* getelementptr inbounds ([7 x i8], [7 x i8]* @.str, i64 0, i64 0), i32* %6, i8* %15, i32* %7)
  br label %17

17:                                               ; preds = %24, %2
  %18 = load i32, i32* %8, align 4
  %19 = sext i32 %18 to i64
  %20 = getelementptr inbounds [20 x i8], [20 x i8]* %13, i64 0, i64 %19
  %21 = load i8, i8* %20, align 1
  %22 = sext i8 %21 to i32
  %23 = icmp ne i32 %22, 0
  br i1 %23, label %24, label %29

24:                                               ; preds = %17
  %25 = load i32, i32* %11, align 4
  %26 = add nsw i32 %25, 1
  store i32 %26, i32* %11, align 4
  %27 = load i32, i32* %8, align 4
  %28 = add nsw i32 %27, 1
  store i32 %28, i32* %8, align 4
  br label %17

29:                                               ; preds = %17
  store i32 0, i32* %8, align 4
  br label %30

30:                                               ; preds = %84, %29
  %31 = load i32, i32* %8, align 4
  %32 = load i32, i32* %11, align 4
  %33 = icmp slt i32 %31, %32
  br i1 %33, label %34, label %87

34:                                               ; preds = %30
  %35 = load i32, i32* %8, align 4
  %36 = sext i32 %35 to i64
  %37 = getelementptr inbounds [20 x i8], [20 x i8]* %13, i64 0, i64 %36
  %38 = load i8, i8* %37, align 1
  %39 = sext i8 %38 to i32
  %40 = icmp sle i32 %39, 57
  br i1 %40, label %41, label %48

41:                                               ; preds = %34
  %42 = load i32, i32* %8, align 4
  %43 = sext i32 %42 to i64
  %44 = getelementptr inbounds [20 x i8], [20 x i8]* %13, i64 0, i64 %43
  %45 = load i8, i8* %44, align 1
  %46 = sext i8 %45 to i32
  %47 = sub nsw i32 %46, 48
  store i32 %47, i32* %9, align 4
  br label %70

48:                                               ; preds = %34
  %49 = load i32, i32* %8, align 4
  %50 = sext i32 %49 to i64
  %51 = getelementptr inbounds [20 x i8], [20 x i8]* %13, i64 0, i64 %50
  %52 = load i8, i8* %51, align 1
  %53 = sext i8 %52 to i32
  %54 = icmp sle i32 %53, 90
  br i1 %54, label %55, label %62

55:                                               ; preds = %48
  %56 = load i32, i32* %8, align 4
  %57 = sext i32 %56 to i64
  %58 = getelementptr inbounds [20 x i8], [20 x i8]* %13, i64 0, i64 %57
  %59 = load i8, i8* %58, align 1
  %60 = sext i8 %59 to i32
  %61 = sub nsw i32 %60, 55
  store i32 %61, i32* %9, align 4
  br label %69

62:                                               ; preds = %48
  %63 = load i32, i32* %8, align 4
  %64 = sext i32 %63 to i64
  %65 = getelementptr inbounds [20 x i8], [20 x i8]* %13, i64 0, i64 %64
  %66 = load i8, i8* %65, align 1
  %67 = sext i8 %66 to i32
  %68 = sub nsw i32 %67, 87
  store i32 %68, i32* %9, align 4
  br label %69

69:                                               ; preds = %62, %55
  br label %70

70:                                               ; preds = %69, %41
  %71 = load i32, i32* %10, align 4
  %72 = load i32, i32* %9, align 4
  %73 = load i32, i32* %6, align 4
  %74 = sitofp i32 %73 to double
  %75 = load i32, i32* %11, align 4
  %76 = load i32, i32* %8, align 4
  %77 = sub nsw i32 %75, %76
  %78 = sub nsw i32 %77, 1
  %79 = sitofp i32 %78 to double
  %80 = call double @pow(double %74, double %79) #3
  %81 = fptosi double %80 to i32
  %82 = mul nsw i32 %72, %81
  %83 = add nsw i32 %71, %82
  store i32 %83, i32* %10, align 4
  br label %84

84:                                               ; preds = %70
  %85 = load i32, i32* %8, align 4
  %86 = add nsw i32 %85, 1
  store i32 %86, i32* %8, align 4
  br label %30

87:                                               ; preds = %30
  store i32 0, i32* %8, align 4
  br label %88

88:                                               ; preds = %104, %87
  %89 = load i32, i32* %10, align 4
  %90 = load i32, i32* %7, align 4
  %91 = srem i32 %89, %90
  %92 = load i32, i32* %8, align 4
  %93 = sext i32 %92 to i64
  %94 = getelementptr inbounds [20 x i32], [20 x i32]* %14, i64 0, i64 %93
  store i32 %91, i32* %94, align 4
  %95 = load i32, i32* %10, align 4
  %96 = load i32, i32* %7, align 4
  %97 = sdiv i32 %95, %96
  store i32 %97, i32* %10, align 4
  %98 = load i32, i32* %8, align 4
  %99 = add nsw i32 %98, 1
  store i32 %99, i32* %8, align 4
  %100 = load i32, i32* %12, align 4
  %101 = add nsw i32 %100, 1
  store i32 %101, i32* %12, align 4
  %102 = load i32, i32* %10, align 4
  %103 = icmp ne i32 %102, 0
  br i1 %103, label %104, label %105

104:                                              ; preds = %88
  br label %88

105:                                              ; preds = %88
  %106 = load i32, i32* %12, align 4
  %107 = sub nsw i32 %106, 1
  store i32 %107, i32* %8, align 4
  br label %108

108:                                              ; preds = %145, %105
  %109 = load i32, i32* %8, align 4
  %110 = icmp sge i32 %109, 0
  br i1 %110, label %111, label %148

111:                                              ; preds = %108
  %112 = load i32, i32* %8, align 4
  %113 = sext i32 %112 to i64
  %114 = getelementptr inbounds [20 x i32], [20 x i32]* %14, i64 0, i64 %113
  %115 = load i32, i32* %114, align 4
  %116 = icmp sle i32 %115, 9
  br i1 %116, label %117, label %123

117:                                              ; preds = %111
  %118 = load i32, i32* %8, align 4
  %119 = sext i32 %118 to i64
  %120 = getelementptr inbounds [20 x i32], [20 x i32]* %14, i64 0, i64 %119
  %121 = load i32, i32* %120, align 4
  %122 = call i32 (i8*, ...) @printf(i8* getelementptr inbounds ([3 x i8], [3 x i8]* @.str.1, i64 0, i64 0), i32 %121)
  br label %144

123:                                              ; preds = %111
  %124 = load i32, i32* %8, align 4
  %125 = sext i32 %124 to i64
  %126 = getelementptr inbounds [20 x i32], [20 x i32]* %14, i64 0, i64 %125
  %127 = load i32, i32* %126, align 4
  %128 = icmp sge i32 %127, 10
  br i1 %128, label %129, label %143

129:                                              ; preds = %123
  %130 = load i32, i32* %8, align 4
  %131 = sext i32 %130 to i64
  %132 = getelementptr inbounds [20 x i32], [20 x i32]* %14, i64 0, i64 %131
  %133 = load i32, i32* %132, align 4
  %134 = add nsw i32 %133, 55
  %135 = load i32, i32* %8, align 4
  %136 = sext i32 %135 to i64
  %137 = getelementptr inbounds [20 x i32], [20 x i32]* %14, i64 0, i64 %136
  store i32 %134, i32* %137, align 4
  %138 = load i32, i32* %8, align 4
  %139 = sext i32 %138 to i64
  %140 = getelementptr inbounds [20 x i32], [20 x i32]* %14, i64 0, i64 %139
  %141 = load i32, i32* %140, align 4
  %142 = call i32 (i8*, ...) @printf(i8* getelementptr inbounds ([3 x i8], [3 x i8]* @.str.2, i64 0, i64 0), i32 %141)
  br label %143

143:                                              ; preds = %129, %123
  br label %144

144:                                              ; preds = %143, %117
  br label %145

145:                                              ; preds = %144
  %146 = load i32, i32* %8, align 4
  %147 = add nsw i32 %146, -1
  store i32 %147, i32* %8, align 4
  br label %108

148:                                              ; preds = %108
  ret i32 0
}

declare dso_local i32 @__isoc99_scanf(i8*, ...) #1

; Function Attrs: nounwind
declare dso_local double @pow(double, double) #2

declare dso_local i32 @printf(i8*, ...) #1


!llvm.module.flags = !{!0}
!llvm.ident = !{!1}

!0 = !{i32 1, !"wchar_size", i32 4}
!1 = !{!"clang version 10.0.0-4ubuntu1 "}
